target datalayout = "e-m:e-p270:32:32-p271:32:32-p272:64:64-i64:64-i128:128-f80:128-n8:16:32:64-S128"
target triple = "x86_64-pc-linux-gnu"

%struct.ASN1_ENCODING_st = type { ptr, i64, i32 }
%struct.X509_algor_st = type { ptr, ptr }
%struct.asn1_string_st = type { i32, i32, ptr, i64 }
%struct.CRYPTO_REF_COUNT = type { i32 }
%struct.crypto_ex_data_st = type { ptr, ptr }
%struct.x509_store_ctx_st = type { ptr, ptr, ptr, ptr, ptr, ptr, ptr, ptr, ptr, ptr, ptr, ptr, ptr, ptr, ptr, ptr, ptr, ptr, i32, i32, ptr, ptr, i32, i32, i32, ptr, ptr, ptr, i32, i32, ptr, %struct.crypto_ex_data_st, ptr, i32, ptr, ptr, ptr }
%struct.X509_VERIFY_PARAM_st = type { ptr, i64, i32, i64, i32, i32, i32, i32, ptr, ptr, i32, ptr, ptr, i64, ptr, i64 }
%struct.X509_crl_st = type { %struct.X509_crl_info_st, %struct.X509_algor_st, %struct.asn1_string_st, %struct.CRYPTO_REF_COUNT, i32, ptr, ptr, i32, i32, ptr, ptr, ptr, [20 x i8], ptr, ptr, ptr, ptr, ptr }
%struct.X509_crl_info_st = type { ptr, %struct.X509_algor_st, ptr, ptr, ptr, ptr, ptr, %struct.ASN1_ENCODING_st }
%struct.x509_revoked_st = type { %struct.asn1_string_st, ptr, ptr, ptr, i32, i32 }

; Function Attrs: nounwind uwtable
define internal i32 @verify_cb_crl(ptr noundef %0, i32 noundef %1) #0 {
  %3 = alloca ptr, align 8
  %4 = alloca i32, align 4
  store ptr %0, ptr %3, align 8, !tbaa !40
  store i32 %1, ptr %4, align 4, !tbaa !8
  %5 = load i32, ptr %4, align 4, !tbaa !8
  %6 = load ptr, ptr %3, align 8, !tbaa !40
  %7 = getelementptr inbounds nuw %struct.x509_store_ctx_st, ptr %6, i32 0, i32 24
  store i32 %5, ptr %7, align 8, !tbaa !53
  %8 = load ptr, ptr %3, align 8, !tbaa !40
  %9 = getelementptr inbounds nuw %struct.x509_store_ctx_st, ptr %8, i32 0, i32 7
  %10 = load ptr, ptr %9, align 8, !tbaa !88
  %11 = load ptr, ptr %3, align 8, !tbaa !40
  %12 = call i32 %10(i32 noundef 0, ptr noundef %11)
  ret i32 %12
}

; Function Attrs: nounwind uwtable
define internal i32 @cert_crl(ptr noundef %0, ptr noundef %1, ptr noundef %2) #0 {
  %4 = alloca i32, align 4
  %5 = alloca ptr, align 8
  %6 = alloca ptr, align 8
  %7 = alloca ptr, align 8
  %8 = alloca ptr, align 8
  %9 = alloca i32, align 4
  store ptr %0, ptr %5, align 8, !tbaa !40
  store ptr %1, ptr %6, align 8, !tbaa !94
  store ptr %2, ptr %7, align 8, !tbaa !3
  call void @llvm.lifetime.start.p0(i64 8, ptr %8) #8
  %10 = load ptr, ptr %5, align 8, !tbaa !40
  %11 = getelementptr inbounds nuw %struct.x509_store_ctx_st, ptr %10, i32 0, i32 4
  %12 = load ptr, ptr %11, align 8, !tbaa !72
  %13 = getelementptr inbounds nuw %struct.X509_VERIFY_PARAM_st, ptr %12, i32 0, i32 3
  %14 = load i64, ptr %13, align 8, !tbaa !73
  %15 = and i64 %14, 16
  %16 = icmp eq i64 %15, 0
  br i1 %16, label %17, label %28

17:                                               ; preds = %3
  %18 = load ptr, ptr %6, align 8, !tbaa !94
  %19 = getelementptr inbounds nuw %struct.X509_crl_st, ptr %18, i32 0, i32 4
  %20 = load i32, ptr %19, align 4, !tbaa !170
  %21 = and i32 %20, 512
  %22 = icmp ne i32 %21, 0
  br i1 %22, label %23, label %28

23:                                               ; preds = %17
  %24 = load ptr, ptr %5, align 8, !tbaa !40
  %25 = call i32 @verify_cb_crl(ptr noundef %24, i32 noundef 36)
  %26 = icmp ne i32 %25, 0
  br i1 %26, label %28, label %27

27:                                               ; preds = %23
  store i32 0, ptr %4, align 4
  store i32 1, ptr %9, align 4
  br label %46

28:                                               ; preds = %23, %17, %3
  %29 = load ptr, ptr %6, align 8, !tbaa !94
  %30 = load ptr, ptr %7, align 8, !tbaa !3
  %31 = call i32 @X509_CRL_get0_by_cert(ptr noundef %29, ptr noundef %8, ptr noundef %30)
  %32 = icmp ne i32 %31, 0
  br i1 %32, label %33, label %45

33:                                               ; preds = %28
  %34 = load ptr, ptr %8, align 8, !tbaa !111
  %35 = getelementptr inbounds nuw %struct.x509_revoked_st, ptr %34, i32 0, i32 4
  %36 = load i32, ptr %35, align 8, !tbaa !171
  %37 = icmp eq i32 %36, 8
  br i1 %37, label %38, label %39

38:                                               ; preds = %33
  store i32 2, ptr %4, align 4
  store i32 1, ptr %9, align 4
  br label %46

39:                                               ; preds = %33
  %40 = load ptr, ptr %5, align 8, !tbaa !40
  %41 = call i32 @verify_cb_crl(ptr noundef %40, i32 noundef 23)
  %42 = icmp ne i32 %41, 0
  br i1 %42, label %44, label %43

43:                                               ; preds = %39
  store i32 0, ptr %4, align 4
  store i32 1, ptr %9, align 4
  br label %46

44:                                               ; preds = %39
  br label %45

45:                                               ; preds = %44, %28
  store i32 1, ptr %4, align 4
  store i32 1, ptr %9, align 4
  br label %46

46:                                               ; preds = %45, %43, %38, %27
  call void @llvm.lifetime.end.p0(i64 8, ptr %8) #8
  %47 = load i32, ptr %4, align 4
  ret i32 %47
}