; Function Attrs: nounwind uwtable
define internal range(i32 0, 3) i32 @cert_crl(ptr noundef %0, ptr noundef %1, ptr noundef %2) #0 {
  %4 = alloca ptr, align 8
  call void @llvm.lifetime.start.p0(i64 8, ptr nonnull %4) #10
  %5 = getelementptr inbounds nuw i8, ptr %0, i64 32
  %6 = load ptr, ptr %5, align 8, !tbaa !49
  %7 = getelementptr inbounds nuw i8, ptr %6, i64 24
  %8 = load i64, ptr %7, align 8, !tbaa !88
  %9 = and i64 %8, 16
  %10 = icmp eq i64 %9, 0
  br i1 %10, label %11, label %20

11:                                               ; preds = %3
  %12 = getelementptr inbounds nuw i8, ptr %1, i64 132
  %13 = load i32, ptr %12, align 4, !tbaa !167
  %14 = and i32 %13, 512
  %.not = icmp eq i32 %14, 0
  br i1 %.not, label %20, label %15

15:                                               ; preds = %11
  %16 = getelementptr inbounds nuw i8, ptr %0, i64 176
  store i32 36, ptr %16, align 8, !tbaa !58
  %17 = getelementptr inbounds nuw i8, ptr %0, i64 56
  %18 = load ptr, ptr %17, align 8, !tbaa !59
  %19 = tail call i32 %18(i32 noundef 0, ptr noundef nonnull %0) #10
  %.not6 = icmp eq i32 %19, 0
  br i1 %.not6, label %33, label %20

20:                                               ; preds = %15, %11, %3
  %21 = call i32 @X509_CRL_get0_by_cert(ptr noundef %1, ptr noundef nonnull %4, ptr noundef %2) #10
  %.not7 = icmp eq i32 %21, 0
  br i1 %.not7, label %32, label %22

22:                                               ; preds = %20
  %23 = load ptr, ptr %4, align 8, !tbaa !116
  %24 = getelementptr inbounds nuw i8, ptr %23, i64 48
  %25 = load i32, ptr %24, align 8, !tbaa !168
  %26 = icmp eq i32 %25, 8
  br i1 %26, label %33, label %27

27:                                               ; preds = %22
  %28 = getelementptr inbounds nuw i8, ptr %0, i64 176
  store i32 23, ptr %28, align 8, !tbaa !58
  %29 = getelementptr inbounds nuw i8, ptr %0, i64 56
  %30 = load ptr, ptr %29, align 8, !tbaa !59
  %31 = call i32 %30(i32 noundef 0, ptr noundef nonnull %0) #10
  %.not8 = icmp eq i32 %31, 0
  br i1 %.not8, label %33, label %32

32:                                               ; preds = %27, %20
  br label %33

33:                                               ; preds = %27, %22, %15, %32
  %.0 = phi i32 [ 1, %32 ], [ 0, %15 ], [ 2, %22 ], [ 0, %27 ]
  call void @llvm.lifetime.end.p0(i64 8, ptr nonnull %4) #10
  ret i32 %.0
}